; Function Attrs: nounwind uwtable
define dso_local void @Curl_mime_cleanpart(ptr noundef %0) local_unnamed_addr #0 {
  %.not = icmp eq ptr %0, null
  br i1 %.not, label %38, label %2

2:                                                ; preds = %1
  %3 = getelementptr inbounds nuw i8, ptr %0, i64 48
  %4 = load ptr, ptr %3, align 8, !tbaa !4
  %.not.i = icmp eq ptr %4, null
  br i1 %.not.i, label %cleanup_part_content.exit, label %5

5:                                                ; preds = %2
  %6 = getelementptr inbounds nuw i8, ptr %0, i64 56
  %7 = load ptr, ptr %6, align 8, !tbaa !19
  tail call void %4(ptr noundef %7) #18
  br label %cleanup_part_content.exit

cleanup_part_content.exit:                        ; preds = %2, %5
  %8 = getelementptr inbounds nuw i8, ptr %0, i64 32
  %9 = getelementptr inbounds nuw i8, ptr %0, i64 56
  tail call void @llvm.memset.p0.i64(ptr noundef nonnull align 8 dereferenceable(24) %8, i8 0, i64 24, i1 false)
  store ptr %0, ptr %9, align 8, !tbaa !19
  %10 = getelementptr inbounds nuw i8, ptr %0, i64 24
  store ptr null, ptr %10, align 8, !tbaa !20
  %11 = getelementptr inbounds nuw i8, ptr %0, i64 64
  store ptr null, ptr %11, align 8, !tbaa !21
  %12 = getelementptr inbounds nuw i8, ptr %0, i64 112
  store i64 0, ptr %12, align 8, !tbaa !22
  %13 = getelementptr inbounds nuw i8, ptr %0, i64 152
  tail call void @llvm.memset.p0.i64(ptr noundef nonnull align 8 dereferenceable(24) %13, i8 0, i64 24, i1 false)
  %14 = getelementptr inbounds nuw i8, ptr %0, i64 16
  store i32 0, ptr %14, align 8, !tbaa !23
  %15 = getelementptr inbounds nuw i8, ptr %0, i64 20
  %16 = load i32, ptr %15, align 4, !tbaa !24
  %17 = and i32 %16, -5
  store i32 %17, ptr %15, align 4, !tbaa !24
  %18 = getelementptr inbounds nuw i8, ptr %0, i64 432
  store i64 1, ptr %18, align 8, !tbaa !25
  %19 = getelementptr inbounds nuw i8, ptr %0, i64 120
  store i32 0, ptr %19, align 8, !tbaa !26
  %20 = getelementptr inbounds nuw i8, ptr %0, i64 72
  %21 = load ptr, ptr %20, align 8, !tbaa !27
  tail call void @curl_slist_free_all(ptr noundef %21) #18
  %22 = load i32, ptr %15, align 4, !tbaa !24
  %23 = and i32 %22, 1
  %.not12 = icmp eq i32 %23, 0
  br i1 %.not12, label %27, label %24

24:                                               ; preds = %cleanup_part_content.exit
  %25 = getelementptr inbounds nuw i8, ptr %0, i64 80
  %26 = load ptr, ptr %25, align 8, !tbaa !28
  tail call void @curl_slist_free_all(ptr noundef %26) #18
  br label %27

27:                                               ; preds = %cleanup_part_content.exit, %24
  %28 = load ptr, ptr @Curl_cfree, align 8, !tbaa !29
  %29 = getelementptr inbounds nuw i8, ptr %0, i64 88
  %30 = load ptr, ptr %29, align 8, !tbaa !30
  tail call void %28(ptr noundef %30) #18
  store ptr null, ptr %29, align 8, !tbaa !30
  %31 = load ptr, ptr @Curl_cfree, align 8, !tbaa !29
  %32 = getelementptr inbounds nuw i8, ptr %0, i64 104
  %33 = load ptr, ptr %32, align 8, !tbaa !31
  tail call void %31(ptr noundef %33) #18
  store ptr null, ptr %32, align 8, !tbaa !31
  %34 = load ptr, ptr @Curl_cfree, align 8, !tbaa !29
  %35 = getelementptr inbounds nuw i8, ptr %0, i64 96
  %36 = load ptr, ptr %35, align 8, !tbaa !32
  tail call void %34(ptr noundef %36) #18
  tail call void @llvm.memset.p0.i64(ptr noundef nonnull align 1 dereferenceable(432) %0, i8 0, i64 432, i1 false)
  store i64 1, ptr %18, align 8, !tbaa !25
  %37 = getelementptr inbounds nuw i8, ptr %0, i64 128
  tail call void @llvm.memset.p0.i64(ptr noundef nonnull align 8 dereferenceable(16) %37, i8 0, i64 16, i1 false)
  br label %38

38:                                               ; preds = %27, %1
  ret void
}